target datalayout = "e-m:e-p270:32:32-p271:32:32-p272:64:64-i64:64-i128:128-f80:128-n8:16:32:64-S128"
target triple = "x86_64-pc-linux-gnu"

%struct._object = type { %union.anon, ptr }
%union.anon = type { i64 }
%struct.ElementObject = type { %struct._object, ptr, ptr, ptr, ptr, ptr }
%struct.ElementObjectExtra = type { ptr, i64, i64, ptr, [4 x ptr] }

; Function Attrs: nounwind uwtable
define internal ptr @_elementtree_Element_items_impl(ptr noundef %0) #0 {
  %2 = alloca ptr, align 8
  %3 = alloca ptr, align 8
  store ptr %0, ptr %3, align 8, !tbaa !8
  %4 = load ptr, ptr %3, align 8, !tbaa !8
  %5 = getelementptr inbounds nuw %struct.ElementObject, ptr %4, i32 0, i32 4
  %6 = load ptr, ptr %5, align 8, !tbaa !42
  %7 = icmp ne ptr %6, null
  br i1 %7, label %8, label %15

8:                                                ; preds = %1
  %9 = load ptr, ptr %3, align 8, !tbaa !8
  %10 = getelementptr inbounds nuw %struct.ElementObject, ptr %9, i32 0, i32 4
  %11 = load ptr, ptr %10, align 8, !tbaa !42
  %12 = getelementptr inbounds nuw %struct.ElementObjectExtra, ptr %11, i32 0, i32 0
  %13 = load ptr, ptr %12, align 8, !tbaa !53
  %14 = icmp ne ptr %13, null
  br i1 %14, label %17, label %15

15:                                               ; preds = %8, %1
  %16 = call ptr @PyList_New(i64 noundef 0)
  store ptr %16, ptr %2, align 8
  br label %24

17:                                               ; preds = %8
  %18 = load ptr, ptr %3, align 8, !tbaa !8
  %19 = getelementptr inbounds nuw %struct.ElementObject, ptr %18, i32 0, i32 4
  %20 = load ptr, ptr %19, align 8, !tbaa !42
  %21 = getelementptr inbounds nuw %struct.ElementObjectExtra, ptr %20, i32 0, i32 0
  %22 = load ptr, ptr %21, align 8, !tbaa !53
  %23 = call ptr @PyDict_Items(ptr noundef %22)
  store ptr %23, ptr %2, align 8
  br label %24

24:                                               ; preds = %17, %15
  %25 = load ptr, ptr %2, align 8
  ret ptr %25
}

; Function Attrs: nounwind uwtable
define internal ptr @_elementtree_Element_items(ptr noundef %0, ptr noundef %1) #0 {
  %3 = alloca ptr, align 8
  %4 = alloca ptr, align 8
  store ptr %0, ptr %3, align 8, !tbaa !3
  store ptr %1, ptr %4, align 8, !tbaa !3
  %5 = load ptr, ptr %3, align 8, !tbaa !3
  %6 = call ptr @_elementtree_Element_items_impl(ptr noundef %5)
  ret ptr %6
}